target datalayout = "e-m:e-p270:32:32-p271:32:32-p272:64:64-i64:64-i128:128-f80:128-n8:16:32:64-S128"
target triple = "x86_64-pc-linux-gnu"

%struct.cache_time = type { i32, i32 }
%struct.object_id = type { [32 x i8], i32 }
%struct.cache_entry = type { %struct.hashmap_entry, %struct.stat_data, i32, i32, i32, i32, i32, %struct.object_id, [0 x i8] }
%struct.hashmap_entry = type { ptr, i32 }
%struct.stat_data = type { %struct.cache_time, %struct.cache_time, i32, i32, i32, i32, i32 }

@.str = private unnamed_addr constant [1 x i8] zeroinitializer, align 1
@.str.1 = private unnamed_addr constant [51 x i8] c"cannot create an empty blob in the object database\00", align 1

; Function Attrs: inlinehint nounwind uwtable
define internal void @oidcpy(ptr noundef %0, ptr noundef %1) #3 {
  %3 = alloca ptr, align 8
  %4 = alloca ptr, align 8
  store ptr %0, ptr %3, align 8, !tbaa !71
  store ptr %1, ptr %4, align 8, !tbaa !71
  %5 = load ptr, ptr %3, align 8, !tbaa !71
  %6 = getelementptr inbounds nuw %struct.object_id, ptr %5, i32 0, i32 0
  %7 = getelementptr inbounds [32 x i8], ptr %6, i64 0, i64 0
  %8 = load ptr, ptr %4, align 8, !tbaa !71
  %9 = getelementptr inbounds nuw %struct.object_id, ptr %8, i32 0, i32 0
  %10 = getelementptr inbounds [32 x i8], ptr %9, i64 0, i64 0
  call void @llvm.memcpy.p0.p0.i64(ptr align 4 %7, ptr align 4 %10, i64 32, i1 false)
  %11 = load ptr, ptr %4, align 8, !tbaa !71
  %12 = getelementptr inbounds nuw %struct.object_id, ptr %11, i32 0, i32 1
  %13 = load i32, ptr %12, align 4, !tbaa !74
  %14 = load ptr, ptr %3, align 8, !tbaa !71
  %15 = getelementptr inbounds nuw %struct.object_id, ptr %14, i32 0, i32 1
  store i32 %13, ptr %15, align 4, !tbaa !74
  ret void
}

; Function Attrs: inlinehint nounwind uwtable
define internal i32 @write_object_file(ptr noundef %0, i64 noundef %1, i32 noundef %2, ptr noundef %3) #3 {
  %5 = alloca ptr, align 8
  %6 = alloca i64, align 8
  %7 = alloca i32, align 4
  %8 = alloca ptr, align 8
  store ptr %0, ptr %5, align 8, !tbaa !64
  store i64 %1, ptr %6, align 8, !tbaa !31
  store i32 %2, ptr %7, align 4, !tbaa !9
  store ptr %3, ptr %8, align 8, !tbaa !71
  %9 = load ptr, ptr %5, align 8, !tbaa !64
  %10 = load i64, ptr %6, align 8, !tbaa !31
  %11 = load i32, ptr %7, align 4, !tbaa !9
  %12 = load ptr, ptr %8, align 8, !tbaa !71
  %13 = call i32 @write_object_file_flags(ptr noundef %9, i64 noundef %10, i32 noundef %11, ptr noundef %12, ptr noundef null, i32 noundef 0)
  ret i32 %13
}

; Function Attrs: nounwind uwtable
define dso_local void @set_object_name_for_intent_to_add_entry(ptr noundef %0) #0 {
  %2 = alloca ptr, align 8
  %3 = alloca %struct.object_id, align 4
  store ptr %0, ptr %2, align 8, !tbaa !29
  call void @llvm.lifetime.start.p0(i64 36, ptr %3) #12
  %4 = call i32 @write_object_file(ptr noundef @.str, i64 noundef 0, i32 noundef 3, ptr noundef %3)
  %5 = icmp ne i32 %4, 0
  br i1 %5, label %6, label %8

6:                                                ; preds = %1
  %7 = call ptr @_(ptr noundef @.str.1)
  call void (ptr, ...) @die(ptr noundef %7) #14
  unreachable

8:                                                ; preds = %1
  %9 = load ptr, ptr %2, align 8, !tbaa !29
  %10 = getelementptr inbounds nuw %struct.cache_entry, ptr %9, i32 0, i32 7
  call void @oidcpy(ptr noundef %10, ptr noundef %3)
  call void @llvm.lifetime.end.p0(i64 36, ptr %3) #12
  ret void
}