; Function Attrs: nounwind uwtable
define dso_local void @set_object_name_for_intent_to_add_entry(ptr noundef writeonly captures(none) %0) local_unnamed_addr #0 {
  %2 = alloca %struct.object_id, align 4
  call void @llvm.lifetime.start.p0(i64 36, ptr nonnull %2) #30
  %3 = call i32 @write_object_file_flags(ptr noundef nonnull @.str, i64 noundef 0, i32 noundef 3, ptr noundef nonnull %2, ptr noundef null, i32 noundef 0) #30
  %.not = icmp eq i32 %3, 0
  br i1 %.not, label %6, label %4

4:                                                ; preds = %1
  %5 = call fastcc ptr @_(ptr noundef nonnull @.str.1)
  call void (ptr, ...) @die(ptr noundef %5) #31
  unreachable

6:                                                ; preds = %1
  %7 = getelementptr inbounds nuw i8, ptr %0, i64 72
  call void @llvm.memcpy.p0.p0.i64(ptr noundef nonnull align 4 dereferenceable(32) %7, ptr noundef nonnull readonly align 4 dereferenceable(32) %2, i64 32, i1 false)
  %8 = getelementptr inbounds nuw i8, ptr %2, i64 32
  %9 = load i32, ptr %8, align 4, !tbaa !79
  %10 = getelementptr inbounds nuw i8, ptr %0, i64 104
  store i32 %9, ptr %10, align 4, !tbaa !79
  call void @llvm.lifetime.end.p0(i64 36, ptr nonnull %2) #30
  ret void
}